target datalayout = "e-m:e-p270:32:32-p271:32:32-p272:64:64-i64:64-i128:128-f80:128-n8:16:32:64-S128"
target triple = "x86_64-pc-linux-gnu"

%struct._fvalue_t = type { ptr, %union.anon.1 }
%union.anon.1 = type { %struct._protocol_value_t }
%struct._protocol_value_t = type { ptr, i32, ptr, i8 }

@.str.52 = private unnamed_addr constant [42 x i8] c"\22%s\22 too big for this field, maximum %ld.\00", align 1
@.str.53 = private unnamed_addr constant [44 x i8] c"\22%s\22 too small for this field, minimum %ld.\00", align 1

; Function Attrs: null_pointer_is_valid sspstrong uwtable
define internal zeroext i1 @_sint64_from_sinteger64(ptr noundef %0, ptr noundef %1, i64 noundef %2, ptr noundef %3, i64 noundef %4, i64 noundef %5) #0 {
  %7 = alloca i1, align 1
  %8 = alloca ptr, align 8
  %9 = alloca ptr, align 8
  %10 = alloca i64, align 8
  %11 = alloca ptr, align 8
  %12 = alloca i64, align 8
  %13 = alloca i64, align 8
  store ptr %0, ptr %8, align 8
  store ptr %1, ptr %9, align 8
  store i64 %2, ptr %10, align 8
  store ptr %3, ptr %11, align 8
  store i64 %4, ptr %12, align 8
  store i64 %5, ptr %13, align 8
  %14 = load i64, ptr %10, align 8
  %15 = load i64, ptr %12, align 8
  %16 = icmp sgt i64 %14, %15
  br i1 %16, label %17, label %26

17:                                               ; preds = %6
  %18 = load ptr, ptr %11, align 8
  %19 = icmp ne ptr %18, null
  br i1 %19, label %20, label %25

20:                                               ; preds = %17
  %21 = load ptr, ptr %9, align 8
  %22 = load i64, ptr %12, align 8
  %23 = call noalias ptr (ptr, ptr, ...) @wmem_strdup_printf(ptr noundef null, ptr noundef @.str.52, ptr noundef %21, i64 noundef %22)
  %24 = load ptr, ptr %11, align 8
  store ptr %23, ptr %24, align 8
  br label %25

25:                                               ; preds = %20, %17
  store i1 false, ptr %7, align 1
  br label %44

26:                                               ; preds = %6
  %27 = load i64, ptr %10, align 8
  %28 = load i64, ptr %13, align 8
  %29 = icmp slt i64 %27, %28
  br i1 %29, label %30, label %39

30:                                               ; preds = %26
  %31 = load ptr, ptr %11, align 8
  %32 = icmp ne ptr %31, null
  br i1 %32, label %33, label %38

33:                                               ; preds = %30
  %34 = load ptr, ptr %9, align 8
  %35 = load i64, ptr %13, align 8
  %36 = call noalias ptr (ptr, ptr, ...) @wmem_strdup_printf(ptr noundef null, ptr noundef @.str.53, ptr noundef %34, i64 noundef %35)
  %37 = load ptr, ptr %11, align 8
  store ptr %36, ptr %37, align 8
  br label %38

38:                                               ; preds = %33, %30
  store i1 false, ptr %7, align 1
  br label %44

39:                                               ; preds = %26
  br label %40

40:                                               ; preds = %39
  %41 = load i64, ptr %10, align 8
  %42 = load ptr, ptr %8, align 8
  %43 = getelementptr inbounds nuw %struct._fvalue_t, ptr %42, i32 0, i32 1
  store i64 %41, ptr %43, align 8
  store i1 true, ptr %7, align 1
  br label %44

44:                                               ; preds = %40, %38, %25
  %45 = load i1, ptr %7, align 1
  ret i1 %45
}

; Function Attrs: null_pointer_is_valid sspstrong uwtable
define internal zeroext i1 @sint24_from_sinteger64(ptr noundef %0, ptr noundef %1, i64 noundef %2, ptr noundef %3) #0 {
  %5 = alloca ptr, align 8
  %6 = alloca ptr, align 8
  %7 = alloca i64, align 8
  %8 = alloca ptr, align 8
  store ptr %0, ptr %5, align 8
  store ptr %1, ptr %6, align 8
  store i64 %2, ptr %7, align 8
  store ptr %3, ptr %8, align 8
  %9 = load ptr, ptr %5, align 8
  %10 = load ptr, ptr %6, align 8
  %11 = load i64, ptr %7, align 8
  %12 = load ptr, ptr %8, align 8
  %13 = call zeroext i1 @_sint64_from_sinteger64(ptr noundef %9, ptr noundef %10, i64 noundef %11, ptr noundef %12, i64 noundef 8388607, i64 noundef -8388608)
  ret i1 %13
}